target datalayout = "e-m:e-p270:32:32-p271:32:32-p272:64:64-i64:64-i128:128-f80:128-n8:16:32:64-S128"
target triple = "x86_64-pc-linux-gnu"

%struct.slurmdb_job_cond_t = type { ptr, ptr, ptr, ptr, i32, i32, i32, i32, i32, ptr, ptr, ptr, i32, i32, ptr, ptr, ptr, ptr, ptr, ptr, ptr, i32, i32, i64, i64, ptr, ptr, ptr }

; Function Attrs: nounwind uwtable
define dso_local void @slurmdb_destroy_job_cond_members(ptr noundef %0) #0 {
  %2 = alloca ptr, align 8
  store ptr %0, ptr %2, align 8
  %3 = load ptr, ptr %2, align 8
  %4 = icmp ne ptr %3, null
  br i1 %4, label %6, label %5

5:                                                ; preds = %1
  br label %203

6:                                                ; preds = %1
  br label %7

7:                                                ; preds = %6
  %8 = load ptr, ptr %2, align 8
  %9 = getelementptr inbounds nuw %struct.slurmdb_job_cond_t, ptr %8, i32 0, i32 0
  %10 = load ptr, ptr %9, align 8
  %11 = icmp ne ptr %10, null
  br i1 %11, label %12, label %16

12:                                               ; preds = %7
  %13 = load ptr, ptr %2, align 8
  %14 = getelementptr inbounds nuw %struct.slurmdb_job_cond_t, ptr %13, i32 0, i32 0
  %15 = load ptr, ptr %14, align 8
  call void @list_destroy(ptr noundef %15)
  br label %16

16:                                               ; preds = %12, %7
  %17 = load ptr, ptr %2, align 8
  %18 = getelementptr inbounds nuw %struct.slurmdb_job_cond_t, ptr %17, i32 0, i32 0
  store ptr null, ptr %18, align 8
  br label %19

19:                                               ; preds = %16
  br label %20

20:                                               ; preds = %19
  %21 = load ptr, ptr %2, align 8
  %22 = getelementptr inbounds nuw %struct.slurmdb_job_cond_t, ptr %21, i32 0, i32 1
  %23 = load ptr, ptr %22, align 8
  %24 = icmp ne ptr %23, null
  br i1 %24, label %25, label %29

25:                                               ; preds = %20
  %26 = load ptr, ptr %2, align 8
  %27 = getelementptr inbounds nuw %struct.slurmdb_job_cond_t, ptr %26, i32 0, i32 1
  %28 = load ptr, ptr %27, align 8
  call void @list_destroy(ptr noundef %28)
  br label %29

29:                                               ; preds = %25, %20
  %30 = load ptr, ptr %2, align 8
  %31 = getelementptr inbounds nuw %struct.slurmdb_job_cond_t, ptr %30, i32 0, i32 1
  store ptr null, ptr %31, align 8
  br label %32

32:                                               ; preds = %29
  br label %33

33:                                               ; preds = %32
  %34 = load ptr, ptr %2, align 8
  %35 = getelementptr inbounds nuw %struct.slurmdb_job_cond_t, ptr %34, i32 0, i32 2
  %36 = load ptr, ptr %35, align 8
  %37 = icmp ne ptr %36, null
  br i1 %37, label %38, label %42

38:                                               ; preds = %33
  %39 = load ptr, ptr %2, align 8
  %40 = getelementptr inbounds nuw %struct.slurmdb_job_cond_t, ptr %39, i32 0, i32 2
  %41 = load ptr, ptr %40, align 8
  call void @list_destroy(ptr noundef %41)
  br label %42

42:                                               ; preds = %38, %33
  %43 = load ptr, ptr %2, align 8
  %44 = getelementptr inbounds nuw %struct.slurmdb_job_cond_t, ptr %43, i32 0, i32 2
  store ptr null, ptr %44, align 8
  br label %45

45:                                               ; preds = %42
  br label %46

46:                                               ; preds = %45
  %47 = load ptr, ptr %2, align 8
  %48 = getelementptr inbounds nuw %struct.slurmdb_job_cond_t, ptr %47, i32 0, i32 3
  %49 = load ptr, ptr %48, align 8
  %50 = icmp ne ptr %49, null
  br i1 %50, label %51, label %55

51:                                               ; preds = %46
  %52 = load ptr, ptr %2, align 8
  %53 = getelementptr inbounds nuw %struct.slurmdb_job_cond_t, ptr %52, i32 0, i32 3
  %54 = load ptr, ptr %53, align 8
  call void @list_destroy(ptr noundef %54)
  br label %55

55:                                               ; preds = %51, %46
  %56 = load ptr, ptr %2, align 8
  %57 = getelementptr inbounds nuw %struct.slurmdb_job_cond_t, ptr %56, i32 0, i32 3
  store ptr null, ptr %57, align 8
  br label %58

58:                                               ; preds = %55
  br label %59

59:                                               ; preds = %58
  %60 = load ptr, ptr %2, align 8
  %61 = getelementptr inbounds nuw %struct.slurmdb_job_cond_t, ptr %60, i32 0, i32 10
  %62 = load ptr, ptr %61, align 8
  %63 = icmp ne ptr %62, null
  br i1 %63, label %64, label %68

64:                                               ; preds = %59
  %65 = load ptr, ptr %2, align 8
  %66 = getelementptr inbounds nuw %struct.slurmdb_job_cond_t, ptr %65, i32 0, i32 10
  %67 = load ptr, ptr %66, align 8
  call void @list_destroy(ptr noundef %67)
  br label %68

68:                                               ; preds = %64, %59
  %69 = load ptr, ptr %2, align 8
  %70 = getelementptr inbounds nuw %struct.slurmdb_job_cond_t, ptr %69, i32 0, i32 10
  store ptr null, ptr %70, align 8
  br label %71

71:                                               ; preds = %68
  br label %72

72:                                               ; preds = %71
  %73 = load ptr, ptr %2, align 8
  %74 = getelementptr inbounds nuw %struct.slurmdb_job_cond_t, ptr %73, i32 0, i32 11
  %75 = load ptr, ptr %74, align 8
  %76 = icmp ne ptr %75, null
  br i1 %76, label %77, label %81

77:                                               ; preds = %72
  %78 = load ptr, ptr %2, align 8
  %79 = getelementptr inbounds nuw %struct.slurmdb_job_cond_t, ptr %78, i32 0, i32 11
  %80 = load ptr, ptr %79, align 8
  call void @list_destroy(ptr noundef %80)
  br label %81

81:                                               ; preds = %77, %72
  %82 = load ptr, ptr %2, align 8
  %83 = getelementptr inbounds nuw %struct.slurmdb_job_cond_t, ptr %82, i32 0, i32 11
  store ptr null, ptr %83, align 8
  br label %84

84:                                               ; preds = %81
  br label %85

85:                                               ; preds = %84
  %86 = load ptr, ptr %2, align 8
  %87 = getelementptr inbounds nuw %struct.slurmdb_job_cond_t, ptr %86, i32 0, i32 14
  %88 = load ptr, ptr %87, align 8
  %89 = icmp ne ptr %88, null
  br i1 %89, label %90, label %94

90:                                               ; preds = %85
  %91 = load ptr, ptr %2, align 8
  %92 = getelementptr inbounds nuw %struct.slurmdb_job_cond_t, ptr %91, i32 0, i32 14
  %93 = load ptr, ptr %92, align 8
  call void @list_destroy(ptr noundef %93)
  br label %94

94:                                               ; preds = %90, %85
  %95 = load ptr, ptr %2, align 8
  %96 = getelementptr inbounds nuw %struct.slurmdb_job_cond_t, ptr %95, i32 0, i32 14
  store ptr null, ptr %96, align 8
  br label %97

97:                                               ; preds = %94
  br label %98

98:                                               ; preds = %97
  %99 = load ptr, ptr %2, align 8
  %100 = getelementptr inbounds nuw %struct.slurmdb_job_cond_t, ptr %99, i32 0, i32 15
  %101 = load ptr, ptr %100, align 8
  %102 = icmp ne ptr %101, null
  br i1 %102, label %103, label %107

103:                                              ; preds = %98
  %104 = load ptr, ptr %2, align 8
  %105 = getelementptr inbounds nuw %struct.slurmdb_job_cond_t, ptr %104, i32 0, i32 15
  %106 = load ptr, ptr %105, align 8
  call void @list_destroy(ptr noundef %106)
  br label %107

107:                                              ; preds = %103, %98
  %108 = load ptr, ptr %2, align 8
  %109 = getelementptr inbounds nuw %struct.slurmdb_job_cond_t, ptr %108, i32 0, i32 15
  store ptr null, ptr %109, align 8
  br label %110

110:                                              ; preds = %107
  br label %111

111:                                              ; preds = %110
  %112 = load ptr, ptr %2, align 8
  %113 = getelementptr inbounds nuw %struct.slurmdb_job_cond_t, ptr %112, i32 0, i32 16
  %114 = load ptr, ptr %113, align 8
  %115 = icmp ne ptr %114, null
  br i1 %115, label %116, label %120

116:                                              ; preds = %111
  %117 = load ptr, ptr %2, align 8
  %118 = getelementptr inbounds nuw %struct.slurmdb_job_cond_t, ptr %117, i32 0, i32 16
  %119 = load ptr, ptr %118, align 8
  call void @list_destroy(ptr noundef %119)
  br label %120

120:                                              ; preds = %116, %111
  %121 = load ptr, ptr %2, align 8
  %122 = getelementptr inbounds nuw %struct.slurmdb_job_cond_t, ptr %121, i32 0, i32 16
  store ptr null, ptr %122, align 8
  br label %123

123:                                              ; preds = %120
  br label %124

124:                                              ; preds = %123
  %125 = load ptr, ptr %2, align 8
  %126 = getelementptr inbounds nuw %struct.slurmdb_job_cond_t, ptr %125, i32 0, i32 17
  %127 = load ptr, ptr %126, align 8
  %128 = icmp ne ptr %127, null
  br i1 %128, label %129, label %133

129:                                              ; preds = %124
  %130 = load ptr, ptr %2, align 8
  %131 = getelementptr inbounds nuw %struct.slurmdb_job_cond_t, ptr %130, i32 0, i32 17
  %132 = load ptr, ptr %131, align 8
  call void @list_destroy(ptr noundef %132)
  br label %133

133:                                              ; preds = %129, %124
  %134 = load ptr, ptr %2, align 8
  %135 = getelementptr inbounds nuw %struct.slurmdb_job_cond_t, ptr %134, i32 0, i32 17
  store ptr null, ptr %135, align 8
  br label %136

136:                                              ; preds = %133
  br label %137

137:                                              ; preds = %136
  %138 = load ptr, ptr %2, align 8
  %139 = getelementptr inbounds nuw %struct.slurmdb_job_cond_t, ptr %138, i32 0, i32 18
  %140 = load ptr, ptr %139, align 8
  %141 = icmp ne ptr %140, null
  br i1 %141, label %142, label %146

142:                                              ; preds = %137
  %143 = load ptr, ptr %2, align 8
  %144 = getelementptr inbounds nuw %struct.slurmdb_job_cond_t, ptr %143, i32 0, i32 18
  %145 = load ptr, ptr %144, align 8
  call void @list_destroy(ptr noundef %145)
  br label %146

146:                                              ; preds = %142, %137
  %147 = load ptr, ptr %2, align 8
  %148 = getelementptr inbounds nuw %struct.slurmdb_job_cond_t, ptr %147, i32 0, i32 18
  store ptr null, ptr %148, align 8
  br label %149

149:                                              ; preds = %146
  br label %150

150:                                              ; preds = %149
  %151 = load ptr, ptr %2, align 8
  %152 = getelementptr inbounds nuw %struct.slurmdb_job_cond_t, ptr %151, i32 0, i32 20
  %153 = load ptr, ptr %152, align 8
  %154 = icmp ne ptr %153, null
  br i1 %154, label %155, label %159

155:                                              ; preds = %150
  %156 = load ptr, ptr %2, align 8
  %157 = getelementptr inbounds nuw %struct.slurmdb_job_cond_t, ptr %156, i32 0, i32 20
  %158 = load ptr, ptr %157, align 8
  call void @list_destroy(ptr noundef %158)
  br label %159

159:                                              ; preds = %155, %150
  %160 = load ptr, ptr %2, align 8
  %161 = getelementptr inbounds nuw %struct.slurmdb_job_cond_t, ptr %160, i32 0, i32 20
  store ptr null, ptr %161, align 8
  br label %162

162:                                              ; preds = %159
  br label %163

163:                                              ; preds = %162
  %164 = load ptr, ptr %2, align 8
  %165 = getelementptr inbounds nuw %struct.slurmdb_job_cond_t, ptr %164, i32 0, i32 19
  %166 = load ptr, ptr %165, align 8
  %167 = icmp ne ptr %166, null
  br i1 %167, label %168, label %172

168:                                              ; preds = %163
  %169 = load ptr, ptr %2, align 8
  %170 = getelementptr inbounds nuw %struct.slurmdb_job_cond_t, ptr %169, i32 0, i32 19
  %171 = load ptr, ptr %170, align 8
  call void @list_destroy(ptr noundef %171)
  br label %172

172:                                              ; preds = %168, %163
  %173 = load ptr, ptr %2, align 8
  %174 = getelementptr inbounds nuw %struct.slurmdb_job_cond_t, ptr %173, i32 0, i32 19
  store ptr null, ptr %174, align 8
  br label %175

175:                                              ; preds = %172
  %176 = load ptr, ptr %2, align 8
  %177 = getelementptr inbounds nuw %struct.slurmdb_job_cond_t, ptr %176, i32 0, i32 25
  call void @slurm_xfree(ptr noundef %177)
  br label %178

178:                                              ; preds = %175
  %179 = load ptr, ptr %2, align 8
  %180 = getelementptr inbounds nuw %struct.slurmdb_job_cond_t, ptr %179, i32 0, i32 26
  %181 = load ptr, ptr %180, align 8
  %182 = icmp ne ptr %181, null
  br i1 %182, label %183, label %187

183:                                              ; preds = %178
  %184 = load ptr, ptr %2, align 8
  %185 = getelementptr inbounds nuw %struct.slurmdb_job_cond_t, ptr %184, i32 0, i32 26
  %186 = load ptr, ptr %185, align 8
  call void @list_destroy(ptr noundef %186)
  br label %187

187:                                              ; preds = %183, %178
  %188 = load ptr, ptr %2, align 8
  %189 = getelementptr inbounds nuw %struct.slurmdb_job_cond_t, ptr %188, i32 0, i32 26
  store ptr null, ptr %189, align 8
  br label %190

190:                                              ; preds = %187
  br label %191

191:                                              ; preds = %190
  %192 = load ptr, ptr %2, align 8
  %193 = getelementptr inbounds nuw %struct.slurmdb_job_cond_t, ptr %192, i32 0, i32 27
  %194 = load ptr, ptr %193, align 8
  %195 = icmp ne ptr %194, null
  br i1 %195, label %196, label %200

196:                                              ; preds = %191
  %197 = load ptr, ptr %2, align 8
  %198 = getelementptr inbounds nuw %struct.slurmdb_job_cond_t, ptr %197, i32 0, i32 27
  %199 = load ptr, ptr %198, align 8
  call void @list_destroy(ptr noundef %199)
  br label %200

200:                                              ; preds = %196, %191
  %201 = load ptr, ptr %2, align 8
  %202 = getelementptr inbounds nuw %struct.slurmdb_job_cond_t, ptr %201, i32 0, i32 27
  store ptr null, ptr %202, align 8
  br label %203

203:                                              ; preds = %5, %200
  ret void
}