; Function Attrs: nounwind uwtable
define dso_local void @slurmdb_destroy_job_cond_members(ptr noundef %0) local_unnamed_addr #0 {
  %.not = icmp eq ptr %0, null
  br i1 %.not, label %63, label %2

2:                                                ; preds = %1
  %3 = load ptr, ptr %0, align 8
  %.not62 = icmp eq ptr %3, null
  br i1 %.not62, label %5, label %4

4:                                                ; preds = %2
  tail call void @list_destroy(ptr noundef nonnull %3) #19
  br label %5

5:                                                ; preds = %4, %2
  store ptr null, ptr %0, align 8
  %6 = getelementptr inbounds nuw i8, ptr %0, i64 8
  %7 = load ptr, ptr %6, align 8
  %.not63 = icmp eq ptr %7, null
  br i1 %.not63, label %9, label %8

8:                                                ; preds = %5
  tail call void @list_destroy(ptr noundef nonnull %7) #19
  br label %9

9:                                                ; preds = %8, %5
  store ptr null, ptr %6, align 8
  %10 = getelementptr inbounds nuw i8, ptr %0, i64 16
  %11 = load ptr, ptr %10, align 8
  %.not64 = icmp eq ptr %11, null
  br i1 %.not64, label %13, label %12

12:                                               ; preds = %9
  tail call void @list_destroy(ptr noundef nonnull %11) #19
  br label %13

13:                                               ; preds = %12, %9
  store ptr null, ptr %10, align 8
  %14 = getelementptr inbounds nuw i8, ptr %0, i64 24
  %15 = load ptr, ptr %14, align 8
  %.not65 = icmp eq ptr %15, null
  br i1 %.not65, label %17, label %16

16:                                               ; preds = %13
  tail call void @list_destroy(ptr noundef nonnull %15) #19
  br label %17

17:                                               ; preds = %16, %13
  store ptr null, ptr %14, align 8
  %18 = getelementptr inbounds nuw i8, ptr %0, i64 64
  %19 = load ptr, ptr %18, align 8
  %.not66 = icmp eq ptr %19, null
  br i1 %.not66, label %21, label %20

20:                                               ; preds = %17
  tail call void @list_destroy(ptr noundef nonnull %19) #19
  br label %21

21:                                               ; preds = %20, %17
  store ptr null, ptr %18, align 8
  %22 = getelementptr inbounds nuw i8, ptr %0, i64 72
  %23 = load ptr, ptr %22, align 8
  %.not67 = icmp eq ptr %23, null
  br i1 %.not67, label %25, label %24

24:                                               ; preds = %21
  tail call void @list_destroy(ptr noundef nonnull %23) #19
  br label %25

25:                                               ; preds = %24, %21
  store ptr null, ptr %22, align 8
  %26 = getelementptr inbounds nuw i8, ptr %0, i64 88
  %27 = load ptr, ptr %26, align 8
  %.not68 = icmp eq ptr %27, null
  br i1 %.not68, label %29, label %28

28:                                               ; preds = %25
  tail call void @list_destroy(ptr noundef nonnull %27) #19
  br label %29

29:                                               ; preds = %28, %25
  store ptr null, ptr %26, align 8
  %30 = getelementptr inbounds nuw i8, ptr %0, i64 96
  %31 = load ptr, ptr %30, align 8
  %.not69 = icmp eq ptr %31, null
  br i1 %.not69, label %33, label %32

32:                                               ; preds = %29
  tail call void @list_destroy(ptr noundef nonnull %31) #19
  br label %33

33:                                               ; preds = %32, %29
  store ptr null, ptr %30, align 8
  %34 = getelementptr inbounds nuw i8, ptr %0, i64 104
  %35 = load ptr, ptr %34, align 8
  %.not70 = icmp eq ptr %35, null
  br i1 %.not70, label %37, label %36

36:                                               ; preds = %33
  tail call void @list_destroy(ptr noundef nonnull %35) #19
  br label %37

37:                                               ; preds = %36, %33
  store ptr null, ptr %34, align 8
  %38 = getelementptr inbounds nuw i8, ptr %0, i64 112
  %39 = load ptr, ptr %38, align 8
  %.not71 = icmp eq ptr %39, null
  br i1 %.not71, label %41, label %40

40:                                               ; preds = %37
  tail call void @list_destroy(ptr noundef nonnull %39) #19
  br label %41

41:                                               ; preds = %40, %37
  store ptr null, ptr %38, align 8
  %42 = getelementptr inbounds nuw i8, ptr %0, i64 120
  %43 = load ptr, ptr %42, align 8
  %.not72 = icmp eq ptr %43, null
  br i1 %.not72, label %45, label %44

44:                                               ; preds = %41
  tail call void @list_destroy(ptr noundef nonnull %43) #19
  br label %45

45:                                               ; preds = %44, %41
  store ptr null, ptr %42, align 8
  %46 = getelementptr inbounds nuw i8, ptr %0, i64 136
  %47 = load ptr, ptr %46, align 8
  %.not73 = icmp eq ptr %47, null
  br i1 %.not73, label %49, label %48

48:                                               ; preds = %45
  tail call void @list_destroy(ptr noundef nonnull %47) #19
  br label %49

49:                                               ; preds = %48, %45
  store ptr null, ptr %46, align 8
  %50 = getelementptr inbounds nuw i8, ptr %0, i64 128
  %51 = load ptr, ptr %50, align 8
  %.not74 = icmp eq ptr %51, null
  br i1 %.not74, label %53, label %52

52:                                               ; preds = %49
  tail call void @list_destroy(ptr noundef nonnull %51) #19
  br label %53

53:                                               ; preds = %52, %49
  store ptr null, ptr %50, align 8
  %54 = getelementptr inbounds nuw i8, ptr %0, i64 168
  tail call void @slurm_xfree(ptr noundef nonnull %54) #19
  %55 = getelementptr inbounds nuw i8, ptr %0, i64 176
  %56 = load ptr, ptr %55, align 8
  %.not75 = icmp eq ptr %56, null
  br i1 %.not75, label %58, label %57

57:                                               ; preds = %53
  tail call void @list_destroy(ptr noundef nonnull %56) #19
  br label %58

58:                                               ; preds = %57, %53
  store ptr null, ptr %55, align 8
  %59 = getelementptr inbounds nuw i8, ptr %0, i64 184
  %60 = load ptr, ptr %59, align 8
  %.not76 = icmp eq ptr %60, null
  br i1 %.not76, label %62, label %61

61:                                               ; preds = %58
  tail call void @list_destroy(ptr noundef nonnull %60) #19
  br label %62

62:                                               ; preds = %61, %58
  store ptr null, ptr %59, align 8
  br label %63

63:                                               ; preds = %1, %62
  ret void
}